; Function Attrs: nounwind uwtable
define ptr @l_Std_Time_TimeZone_ZoneRules_findLocalTimeTypeForTimestamp(ptr noundef readonly captures(none) %0, ptr noundef %1) local_unnamed_addr #1 {
  %3 = getelementptr inbounds nuw i8, ptr %0, i64 8
  %4 = getelementptr inbounds nuw i8, ptr %0, i64 16
  %5 = load ptr, ptr %4, align 8, !tbaa !10
  %6 = tail call ptr @l_Std_Time_TimeZone_Transition_findTransitionForTimestamp(ptr noundef %5, ptr noundef %1)
  %7 = ptrtoint ptr %6 to i64
  %8 = and i64 %7, 1
  %.not.i20 = icmp eq i64 %8, 0
  br i1 %.not.i20, label %12, label %9

9:                                                ; preds = %2
  %10 = lshr i64 %7, 1
  %11 = trunc i64 %10 to i32
  br label %lean_obj_tag.exit

12:                                               ; preds = %2
  %13 = getelementptr i8, ptr %6, i64 4
  %.val.i = load i32, ptr %13, align 4
  %14 = lshr i32 %.val.i, 24
  br label %lean_obj_tag.exit

lean_obj_tag.exit:                                ; preds = %9, %12
  %.0.i = phi i32 [ %11, %9 ], [ %14, %12 ]
  %15 = icmp eq i32 %.0.i, 0
  br i1 %15, label %16, label %26

16:                                               ; preds = %lean_obj_tag.exit
  %17 = load ptr, ptr %3, align 8, !tbaa !10
  %18 = ptrtoint ptr %17 to i64
  %19 = and i64 %18, 1
  %.not31 = icmp eq i64 %19, 0
  br i1 %.not31, label %20, label %lean_inc.exit17

20:                                               ; preds = %16
  %.val.i21 = load i32, ptr %17, align 4, !tbaa !4
  %21 = icmp sgt i32 %.val.i21, 0
  br i1 %21, label %22, label %24, !prof !9

22:                                               ; preds = %20
  %23 = add nuw i32 %.val.i21, 1
  store i32 %23, ptr %17, align 4, !tbaa !4
  br label %lean_inc.exit17

24:                                               ; preds = %20
  %.not.i22 = icmp eq i32 %.val.i21, 0
  br i1 %.not.i22, label %lean_inc.exit17, label %25

25:                                               ; preds = %24
  tail call void @lean_inc_ref_cold(ptr noundef nonnull %17) #6
  br label %lean_inc.exit17

26:                                               ; preds = %lean_obj_tag.exit
  %27 = getelementptr inbounds nuw i8, ptr %6, i64 8
  %28 = load ptr, ptr %27, align 8, !tbaa !10
  %29 = ptrtoint ptr %28 to i64
  %30 = and i64 %29, 1
  %.not = icmp eq i64 %30, 0
  br i1 %.not, label %31, label %lean_inc.exit16

31:                                               ; preds = %26
  %.val.i23 = load i32, ptr %28, align 4, !tbaa !4
  %32 = icmp sgt i32 %.val.i23, 0
  br i1 %32, label %33, label %35, !prof !9

33:                                               ; preds = %31
  %34 = add nuw i32 %.val.i23, 1
  store i32 %34, ptr %28, align 4, !tbaa !4
  br label %lean_inc.exit16

35:                                               ; preds = %31
  %.not.i24 = icmp eq i32 %.val.i23, 0
  br i1 %.not.i24, label %lean_inc.exit16, label %36

36:                                               ; preds = %35
  tail call void @lean_inc_ref_cold(ptr noundef nonnull %28) #6
  br label %lean_inc.exit16

lean_inc.exit16:                                  ; preds = %36, %35, %33, %26
  br i1 %.not.i20, label %37, label %lean_dec.exit15

37:                                               ; preds = %lean_inc.exit16
  %38 = load i32, ptr %6, align 4, !tbaa !4
  %39 = icmp sgt i32 %38, 1
  br i1 %39, label %40, label %42, !prof !9

40:                                               ; preds = %37
  %41 = add nsw i32 %38, -1
  store i32 %41, ptr %6, align 4, !tbaa !4
  br label %lean_dec.exit15

42:                                               ; preds = %37
  %.not.i = icmp eq i32 %38, 0
  br i1 %.not.i, label %lean_dec.exit15, label %43

43:                                               ; preds = %42
  tail call void @lean_dec_ref_cold(ptr noundef nonnull %6) #6
  br label %lean_dec.exit15

lean_dec.exit15:                                  ; preds = %43, %42, %40, %lean_inc.exit16
  %44 = getelementptr inbounds nuw i8, ptr %28, i64 16
  %45 = load ptr, ptr %44, align 8, !tbaa !10
  %46 = ptrtoint ptr %45 to i64
  %47 = and i64 %46, 1
  %.not30 = icmp eq i64 %47, 0
  br i1 %.not30, label %48, label %lean_inc.exit

48:                                               ; preds = %lean_dec.exit15
  %.val.i26 = load i32, ptr %45, align 4, !tbaa !4
  %49 = icmp sgt i32 %.val.i26, 0
  br i1 %49, label %50, label %52, !prof !9

50:                                               ; preds = %48
  %51 = add nuw i32 %.val.i26, 1
  store i32 %51, ptr %45, align 4, !tbaa !4
  br label %lean_inc.exit

52:                                               ; preds = %48
  %.not.i27 = icmp eq i32 %.val.i26, 0
  br i1 %.not.i27, label %lean_inc.exit, label %53

53:                                               ; preds = %52
  tail call void @lean_inc_ref_cold(ptr noundef nonnull %45) #6
  br label %lean_inc.exit

lean_inc.exit:                                    ; preds = %53, %52, %50, %lean_dec.exit15
  br i1 %.not, label %54, label %lean_inc.exit17

54:                                               ; preds = %lean_inc.exit
  %55 = load i32, ptr %28, align 4, !tbaa !4
  %56 = icmp sgt i32 %55, 1
  br i1 %56, label %57, label %59, !prof !9

57:                                               ; preds = %54
  %58 = add nsw i32 %55, -1
  store i32 %58, ptr %28, align 4, !tbaa !4
  br label %lean_inc.exit17

59:                                               ; preds = %54
  %.not.i18 = icmp eq i32 %55, 0
  br i1 %.not.i18, label %lean_inc.exit17, label %60

60:                                               ; preds = %59
  tail call void @lean_dec_ref_cold(ptr noundef nonnull %28) #6
  br label %lean_inc.exit17

lean_inc.exit17:                                  ; preds = %lean_inc.exit, %57, %59, %60, %16, %22, %24, %25
  %.0 = phi ptr [ %17, %25 ], [ %17, %24 ], [ %17, %22 ], [ %17, %16 ], [ %45, %60 ], [ %45, %59 ], [ %45, %57 ], [ %45, %lean_inc.exit ]
  ret ptr %.0
}